
code.elf:     file format elf32-littleriscv


Disassembly of section .text:

00000000 <_start>:
   0:	00001137          	lui	sp,0x1
   4:	008000ef          	jal	c <main>

00000008 <end_loop>:
   8:	0000006f          	j	8 <end_loop>

0000000c <main>:
   c:	ff010113          	addi	sp,sp,-16 # ff0 <bram_in+0xe94>
  10:	00812623          	sw	s0,12(sp)
  14:	00912423          	sw	s1,8(sp)
  18:	01212223          	sw	s2,4(sp)
  1c:	01312023          	sw	s3,0(sp)
  20:	07e00813          	li	a6,126
  24:	ffe00f13          	li	t5,-2
  28:	00000e93          	li	t4,0
  2c:	0ff00513          	li	a0,255
  30:	00004fb7          	lui	t6,0x4
  34:	f00f8f93          	addi	t6,t6,-256 # 3f00 <bram_in+0x3da4>
  38:	0fc0006f          	j	134 <main+0x128>
  3c:	0ff7f793          	zext.b	a5,a5
  40:	00f70023          	sb	a5,0(a4)
  44:	0f060263          	beq	a2,a6,128 <main+0x11c>
  48:	15c02703          	lw	a4,348(zero) # 15c <bram_in>
  4c:	00c707b3          	add	a5,a4,a2
  50:	0007c403          	lbu	s0,0(a5)
  54:	00060913          	mv	s2,a2
  58:	00160613          	addi	a2,a2,1
  5c:	00c707b3          	add	a5,a4,a2
  60:	0007c783          	lbu	a5,0(a5)
  64:	00290693          	addi	a3,s2,2
  68:	00d706b3          	add	a3,a4,a3
  6c:	0006c683          	lbu	a3,0(a3)
  70:	08090593          	addi	a1,s2,128
  74:	00b705b3          	add	a1,a4,a1
  78:	0005c283          	lbu	t0,0(a1)
  7c:	08190593          	addi	a1,s2,129
  80:	00b705b3          	add	a1,a4,a1
  84:	0005c583          	lbu	a1,0(a1)
  88:	08290593          	addi	a1,s2,130
  8c:	00b705b3          	add	a1,a4,a1
  90:	0005c583          	lbu	a1,0(a1)
  94:	10090393          	addi	t2,s2,256
  98:	007703b3          	add	t2,a4,t2
  9c:	0003c383          	lbu	t2,0(t2)
  a0:	10190493          	addi	s1,s2,257
  a4:	009704b3          	add	s1,a4,s1
  a8:	0004c983          	lbu	s3,0(s1)
  ac:	10290493          	addi	s1,s2,258
  b0:	00970733          	add	a4,a4,s1
  b4:	00074483          	lbu	s1,0(a4)
  b8:	01288933          	add	s2,a7,s2
  bc:	15802703          	lw	a4,344(zero) # 158 <bram_out>
  c0:	01270733          	add	a4,a4,s2
  c4:	40f007b3          	neg	a5,a5
  c8:	00179793          	slli	a5,a5,0x1
  cc:	408787b3          	sub	a5,a5,s0
  d0:	40d787b3          	sub	a5,a5,a3
  d4:	00f387b3          	add	a5,t2,a5
  d8:	00199913          	slli	s2,s3,0x1
  dc:	012787b3          	add	a5,a5,s2
  e0:	00f487b3          	add	a5,s1,a5
  e4:	41f7d913          	srai	s2,a5,0x1f
  e8:	00f947b3          	xor	a5,s2,a5
  ec:	412787b3          	sub	a5,a5,s2
  f0:	408686b3          	sub	a3,a3,s0
  f4:	00129293          	slli	t0,t0,0x1
  f8:	405686b3          	sub	a3,a3,t0
  fc:	00159593          	slli	a1,a1,0x1
 100:	00b686b3          	add	a3,a3,a1
 104:	407686b3          	sub	a3,a3,t2
 108:	00d484b3          	add	s1,s1,a3
 10c:	41f4d693          	srai	a3,s1,0x1f
 110:	0096c4b3          	xor	s1,a3,s1
 114:	40d484b3          	sub	s1,s1,a3
 118:	009787b3          	add	a5,a5,s1
 11c:	f2f550e3          	bge	a0,a5,3c <main+0x30>
 120:	00050793          	mv	a5,a0
 124:	f19ff06f          	j	3c <main+0x30>
 128:	ffef0f13          	addi	t5,t5,-2
 12c:	08080813          	addi	a6,a6,128
 130:	01fe8a63          	beq	t4,t6,144 <main+0x138>
 134:	000e8613          	mv	a2,t4
 138:	080e8e93          	addi	t4,t4,128
 13c:	002f0893          	addi	a7,t5,2
 140:	f09ff06f          	j	48 <main+0x3c>
 144:	15402783          	lw	a5,340(zero) # 154 <sw_done_reg>
 148:	00100713          	li	a4,1
 14c:	00e7a023          	sw	a4,0(a5)
 150:	0000006f          	j	150 <main+0x144>
